target datalayout = "e-m:e-p270:32:32-p271:32:32-p272:64:64-i64:64-i128:128-f80:128-n8:16:32:64-S128"
target triple = "x86_64-pc-linux-gnu"

%struct._e_guid_t = type { i32, i16, i16, [8 x i8] }
%struct._dcerpc_info = type { ptr, i32, i64, i8, i8, i8, i32, i32, i32, i32, i32, i32, i32, i32, ptr, ptr, ptr, ptr, %struct.anon }
%struct.anon = type { i8, ptr, ptr, ptr, i8 }
%struct._dcerpc_call_value = type { %struct._e_guid_t, i16, %struct._e_guid_t, i16, i32, %struct.nstime_t, i32, i32, ptr, ptr, ptr, i32 }
%struct.nstime_t = type { i64, i32 }

@ett_mapi_AuxInfo = internal global i32 0, align 4
@hf_mapi_AuxInfo_auxInSize = internal global i32 0, align 4
@hf_mapi_AuxInfo_RpcHeaderExtension = internal global i32 0, align 4
@hf_mapi_AuxInfoOut_RpcHeaderExtension = internal global i32 0, align 4
@.str.3870 = private unnamed_addr constant [23 x i8] c"Decrypted MAPI AuxInfo\00", align 1
@ett_mapi_connect_request = internal global i32 0, align 4
@hf_mapi_AuxInfoOut_auxHeader = internal global i32 0, align 4
@hf_mapi_AuxInfo_auxHeader = internal global i32 0, align 4

; Function Attrs: null_pointer_is_valid sspstrong uwtable
define internal i32 @mapi_dissect_element_AuxInfo_auxHeader(ptr noundef %0, i32 noundef %1, ptr noundef %2, ptr noundef %3, ptr noundef %4, ptr noundef %5) #0 {
  %7 = alloca i32, align 4
  %8 = alloca ptr, align 8
  %9 = alloca i32, align 4
  %10 = alloca ptr, align 8
  %11 = alloca ptr, align 8
  %12 = alloca ptr, align 8
  %13 = alloca ptr, align 8
  %14 = alloca i32, align 4
  %15 = alloca i32, align 4
  store ptr %0, ptr %8, align 8
  store i32 %1, ptr %9, align 4
  store ptr %2, ptr %10, align 8
  store ptr %3, ptr %11, align 8
  store ptr %4, ptr %12, align 8
  store ptr %5, ptr %13, align 8
  call void @llvm.lifetime.start.p0(i64 4, ptr %14) #5
  %16 = load ptr, ptr %8, align 8
  %17 = call i32 @tvb_reported_length(ptr noundef %16)
  store i32 %17, ptr %14, align 4
  %18 = load ptr, ptr %12, align 8
  %19 = getelementptr inbounds nuw %struct._dcerpc_info, ptr %18, i32 0, i32 4
  %20 = load i8, ptr %19, align 1, !range !6, !noundef !7
  %21 = trunc i8 %20 to i1
  br i1 %21, label %22, label %24

22:                                               ; preds = %6
  %23 = load i32, ptr %9, align 4
  store i32 %23, ptr %7, align 4
  store i32 1, ptr %15, align 4
  br label %55

24:                                               ; preds = %6
  br label %25

25:                                               ; preds = %50, %24
  %26 = load i32, ptr %9, align 4
  %27 = icmp sge i32 %26, 0
  br i1 %27, label %28, label %32

28:                                               ; preds = %25
  %29 = load i32, ptr %9, align 4
  %30 = load i32, ptr %14, align 4
  %31 = icmp ult i32 %29, %30
  br label %32

32:                                               ; preds = %28, %25
  %33 = phi i1 [ false, %25 ], [ %31, %28 ]
  br i1 %33, label %34, label %53

34:                                               ; preds = %32
  %35 = load ptr, ptr %8, align 8
  %36 = load i32, ptr %9, align 4
  %37 = load ptr, ptr %10, align 8
  %38 = load ptr, ptr %11, align 8
  %39 = load ptr, ptr %12, align 8
  %40 = load ptr, ptr %13, align 8
  %41 = load ptr, ptr %12, align 8
  %42 = getelementptr inbounds nuw %struct._dcerpc_info, ptr %41, i32 0, i32 3
  %43 = load i8, ptr %42, align 8
  %44 = zext i8 %43 to i32
  %45 = icmp eq i32 %44, 0
  br i1 %45, label %46, label %48

46:                                               ; preds = %34
  %47 = load i32, ptr @hf_mapi_AuxInfo_auxHeader, align 4
  br label %50

48:                                               ; preds = %34
  %49 = load i32, ptr @hf_mapi_AuxInfoOut_auxHeader, align 4
  br label %50

50:                                               ; preds = %48, %46
  %51 = phi i32 [ %47, %46 ], [ %49, %48 ]
  %52 = call i32 @mapi_dissect_struct_AUX_HEADER(ptr noundef %35, i32 noundef %36, ptr noundef %37, ptr noundef %38, ptr noundef %39, ptr noundef %40, i32 noundef %51, i32 noundef 0)
  store i32 %52, ptr %9, align 4
  br label %25, !llvm.loop !13

53:                                               ; preds = %32
  %54 = load i32, ptr %9, align 4
  store i32 %54, ptr %7, align 4
  store i32 1, ptr %15, align 4
  br label %55

55:                                               ; preds = %53, %22
  call void @llvm.lifetime.end.p0(i64 4, ptr %14) #5
  %56 = load i32, ptr %7, align 4
  ret i32 %56
}

; Function Attrs: null_pointer_is_valid sspstrong uwtable
define hidden i32 @mapi_dissect_struct_AuxInfo(ptr noundef %0, i32 noundef %1, ptr noundef %2, ptr noundef %3, ptr noundef %4, ptr noundef %5, i32 noundef %6, i32 noundef %7) #0 {
  %9 = alloca i32, align 4
  %10 = alloca ptr, align 8
  %11 = alloca i32, align 4
  %12 = alloca ptr, align 8
  %13 = alloca ptr, align 8
  %14 = alloca ptr, align 8
  %15 = alloca ptr, align 8
  %16 = alloca i32, align 4
  %17 = alloca i32, align 4
  %18 = alloca ptr, align 8
  %19 = alloca ptr, align 8
  %20 = alloca i32, align 4
  %21 = alloca ptr, align 8
  %22 = alloca i32, align 4
  store ptr %0, ptr %10, align 8
  store i32 %1, ptr %11, align 4
  store ptr %2, ptr %12, align 8
  store ptr %3, ptr %13, align 8
  store ptr %4, ptr %14, align 8
  store ptr %5, ptr %15, align 8
  store i32 %6, ptr %16, align 4
  store i32 %7, ptr %17, align 4
  call void @llvm.lifetime.start.p0(i64 8, ptr %18) #5
  store ptr null, ptr %18, align 8
  call void @llvm.lifetime.start.p0(i64 8, ptr %19) #5
  store ptr null, ptr %19, align 8
  call void @llvm.lifetime.start.p0(i64 4, ptr %20) #5
  %23 = load i32, ptr %11, align 4
  store i32 %23, ptr %20, align 4
  call void @llvm.lifetime.start.p0(i64 8, ptr %21) #5
  store ptr null, ptr %21, align 8
  %24 = load ptr, ptr %14, align 8
  %25 = getelementptr inbounds nuw %struct._dcerpc_info, ptr %24, i32 0, i32 4
  %26 = load i8, ptr %25, align 1, !range !6, !noundef !7
  %27 = trunc i8 %26 to i1
  br i1 %27, label %37, label %28

28:                                               ; preds = %8
  %29 = load i32, ptr %11, align 4
  %30 = and i32 %29, 3
  %31 = icmp ne i32 %30, 0
  br i1 %31, label %32, label %36

32:                                               ; preds = %28
  %33 = load i32, ptr %11, align 4
  %34 = and i32 %33, -4
  %35 = add i32 %34, 4
  store i32 %35, ptr %11, align 4
  br label %36

36:                                               ; preds = %32, %28
  br label %37

37:                                               ; preds = %36, %8
  %38 = load ptr, ptr %14, align 8
  %39 = getelementptr inbounds nuw %struct._dcerpc_info, ptr %38, i32 0, i32 4
  %40 = load i8, ptr %39, align 1, !range !6, !noundef !7
  %41 = trunc i8 %40 to i1
  br i1 %41, label %42, label %44

42:                                               ; preds = %37
  %43 = load i32, ptr %11, align 4
  store i32 %43, ptr %9, align 4
  store i32 1, ptr %22, align 4
  br label %137

44:                                               ; preds = %37
  %45 = load ptr, ptr %13, align 8
  %46 = icmp ne ptr %45, null
  br i1 %46, label %47, label %56

47:                                               ; preds = %44
  %48 = load ptr, ptr %13, align 8
  %49 = load i32, ptr %16, align 4
  %50 = load ptr, ptr %10, align 8
  %51 = load i32, ptr %11, align 4
  %52 = call ptr @proto_tree_add_item(ptr noundef %48, i32 noundef %49, ptr noundef %50, i32 noundef %51, i32 noundef -1, i32 noundef 0)
  store ptr %52, ptr %18, align 8
  %53 = load ptr, ptr %18, align 8
  %54 = load i32, ptr @ett_mapi_AuxInfo, align 4
  %55 = call ptr @proto_item_add_subtree(ptr noundef %53, i32 noundef %54)
  store ptr %55, ptr %19, align 8
  br label %56

56:                                               ; preds = %47, %44
  %57 = load ptr, ptr %14, align 8
  %58 = getelementptr inbounds nuw %struct._dcerpc_info, ptr %57, i32 0, i32 3
  %59 = load i8, ptr %58, align 8
  %60 = zext i8 %59 to i32
  %61 = icmp eq i32 %60, 0
  br i1 %61, label %62, label %71

62:                                               ; preds = %56
  %63 = load ptr, ptr %10, align 8
  %64 = load i32, ptr %11, align 4
  %65 = load ptr, ptr %12, align 8
  %66 = load ptr, ptr %19, align 8
  %67 = load ptr, ptr %14, align 8
  %68 = load ptr, ptr %15, align 8
  %69 = load i32, ptr @hf_mapi_AuxInfo_auxInSize, align 4
  %70 = call i32 @dissect_ndr_uint32(ptr noundef %63, i32 noundef %64, ptr noundef %65, ptr noundef %66, ptr noundef %67, ptr noundef %68, i32 noundef %69, ptr noundef null)
  store i32 %70, ptr %11, align 4
  br label %71

71:                                               ; preds = %62, %56
  %72 = load ptr, ptr %10, align 8
  %73 = load i32, ptr %11, align 4
  %74 = load ptr, ptr %12, align 8
  %75 = load ptr, ptr %19, align 8
  %76 = load ptr, ptr %14, align 8
  %77 = load ptr, ptr %15, align 8
  %78 = load ptr, ptr %14, align 8
  %79 = getelementptr inbounds nuw %struct._dcerpc_info, ptr %78, i32 0, i32 3
  %80 = load i8, ptr %79, align 8
  %81 = zext i8 %80 to i32
  %82 = icmp eq i32 %81, 0
  br i1 %82, label %83, label %85

83:                                               ; preds = %71
  %84 = load i32, ptr @hf_mapi_AuxInfo_RpcHeaderExtension, align 4
  br label %87

85:                                               ; preds = %71
  %86 = load i32, ptr @hf_mapi_AuxInfoOut_RpcHeaderExtension, align 4
  br label %87

87:                                               ; preds = %85, %83
  %88 = phi i32 [ %84, %83 ], [ %86, %85 ]
  %89 = call i32 @dissect_RPC_HEADER_EXT(ptr noundef %72, i32 noundef %73, ptr noundef %74, ptr noundef %75, ptr noundef %76, ptr noundef %77, i32 noundef %88, ptr noundef %21)
  store i32 %89, ptr %11, align 4
  %90 = load ptr, ptr %21, align 8
  %91 = icmp ne ptr %90, null
  br i1 %91, label %94, label %92

92:                                               ; preds = %87
  %93 = load i32, ptr %11, align 4
  store i32 %93, ptr %9, align 4
  store i32 1, ptr %22, align 4
  br label %137

94:                                               ; preds = %87
  %95 = load ptr, ptr %18, align 8
  %96 = load i32, ptr %11, align 4
  %97 = load i32, ptr %20, align 4
  %98 = sub i32 %96, %97
  call void @proto_item_set_len(ptr noundef %95, i32 noundef %98)
  %99 = load ptr, ptr %12, align 8
  %100 = load ptr, ptr %21, align 8
  call void @add_new_data_source(ptr noundef %99, ptr noundef %100, ptr noundef @.str.3870)
  %101 = load ptr, ptr %19, align 8
  %102 = load ptr, ptr %21, align 8
  %103 = load ptr, ptr %21, align 8
  %104 = call i32 @tvb_reported_length(ptr noundef %103)
  %105 = load i32, ptr @ett_mapi_connect_request, align 4
  %106 = call ptr @proto_tree_add_subtree(ptr noundef %101, ptr noundef %102, i32 noundef 0, i32 noundef %104, i32 noundef %105, ptr noundef null, ptr noundef @.str.3870)
  store ptr %106, ptr %19, align 8
  %107 = load ptr, ptr %21, align 8
  %108 = load ptr, ptr %12, align 8
  %109 = load ptr, ptr %19, align 8
  %110 = load ptr, ptr %14, align 8
  %111 = load ptr, ptr %15, align 8
  %112 = call i32 @mapi_dissect_element_AuxInfo_auxHeader(ptr noundef %107, i32 noundef 0, ptr noundef %108, ptr noundef %109, ptr noundef %110, ptr noundef %111)
  %113 = load ptr, ptr %14, align 8
  %114 = getelementptr inbounds nuw %struct._dcerpc_info, ptr %113, i32 0, i32 14
  %115 = load ptr, ptr %114, align 8
  %116 = getelementptr inbounds nuw %struct._dcerpc_call_value, ptr %115, i32 0, i32 11
  %117 = load i32, ptr %116, align 8
  %118 = and i32 %117, 1
  %119 = icmp ne i32 %118, 0
  br i1 %119, label %120, label %135

120:                                              ; preds = %94
  %121 = load ptr, ptr %14, align 8
  %122 = getelementptr inbounds nuw %struct._dcerpc_info, ptr %121, i32 0, i32 4
  %123 = load i8, ptr %122, align 1, !range !6, !noundef !7
  %124 = trunc i8 %123 to i1
  br i1 %124, label %134, label %125

125:                                              ; preds = %120
  %126 = load i32, ptr %11, align 4
  %127 = and i32 %126, 3
  %128 = icmp ne i32 %127, 0
  br i1 %128, label %129, label %133

129:                                              ; preds = %125
  %130 = load i32, ptr %11, align 4
  %131 = and i32 %130, -4
  %132 = add i32 %131, 4
  store i32 %132, ptr %11, align 4
  br label %133

133:                                              ; preds = %129, %125
  br label %134

134:                                              ; preds = %133, %120
  br label %135

135:                                              ; preds = %134, %94
  %136 = load i32, ptr %11, align 4
  store i32 %136, ptr %9, align 4
  store i32 1, ptr %22, align 4
  br label %137

137:                                              ; preds = %135, %92, %42
  call void @llvm.lifetime.end.p0(i64 8, ptr %21) #5
  call void @llvm.lifetime.end.p0(i64 4, ptr %20) #5
  call void @llvm.lifetime.end.p0(i64 8, ptr %19) #5
  call void @llvm.lifetime.end.p0(i64 8, ptr %18) #5
  %138 = load i32, ptr %9, align 4
  ret i32 %138
}