; Function Attrs: null_pointer_is_valid sspstrong uwtable
define hidden i32 @mapi_dissect_struct_AuxInfo(ptr noundef %0, i32 noundef %1, ptr noundef %2, ptr noundef %3, ptr noundef %4, ptr noundef %5, i32 noundef %6, i32 %7) local_unnamed_addr #0 {
  %9 = alloca ptr, align 8
  call void @llvm.lifetime.start.p0(i64 8, ptr nonnull %9) #6
  store ptr null, ptr %9, align 8
  %10 = getelementptr inbounds nuw i8, ptr %4, i64 25
  %11 = load i8, ptr %10, align 1, !range !9, !noundef !10
  %12 = trunc nuw i8 %11 to i1
  %13 = and i32 %1, 3
  %.not = icmp eq i32 %13, 0
  %or.cond = or i1 %.not, %12
  %14 = and i32 %1, -4
  %15 = add i32 %14, 4
  %.043 = select i1 %or.cond, i32 %1, i32 %15
  br i1 %12, label %66, label %16

16:                                               ; preds = %8
  %.not45 = icmp eq ptr %3, null
  br i1 %.not45, label %21, label %17

17:                                               ; preds = %16
  %18 = tail call ptr @proto_tree_add_item(ptr noundef nonnull %3, i32 noundef %6, ptr noundef %0, i32 noundef %.043, i32 noundef -1, i32 noundef 0)
  %19 = load i32, ptr @ett_mapi_AuxInfo, align 4
  %20 = tail call ptr @proto_item_add_subtree(ptr noundef %18, i32 noundef %19)
  br label %21

21:                                               ; preds = %17, %16
  %.042 = phi ptr [ %18, %17 ], [ null, %16 ]
  %.041 = phi ptr [ %20, %17 ], [ null, %16 ]
  %22 = getelementptr inbounds nuw i8, ptr %4, i64 24
  %23 = load i8, ptr %22, align 8
  %24 = icmp eq i8 %23, 0
  br i1 %24, label %26, label %.thread

.thread:                                          ; preds = %21
  %25 = load i32, ptr @hf_mapi_AuxInfoOut_RpcHeaderExtension, align 4
  br label %32

26:                                               ; preds = %21
  %27 = load i32, ptr @hf_mapi_AuxInfo_auxInSize, align 4
  %28 = tail call i32 @dissect_ndr_uint32(ptr noundef %0, i32 noundef %.043, ptr noundef %2, ptr noundef %.041, ptr noundef %4, ptr noundef %5, i32 noundef %27, ptr noundef null)
  %.pre = load i8, ptr %22, align 8
  %.pre.fr = freeze i8 %.pre
  %29 = icmp eq i8 %.pre.fr, 0
  %30 = load i32, ptr @hf_mapi_AuxInfo_RpcHeaderExtension, align 4
  %31 = load i32, ptr @hf_mapi_AuxInfoOut_RpcHeaderExtension, align 4
  %spec.select = select i1 %29, i32 %30, i32 %31
  br label %32

32:                                               ; preds = %26, %.thread
  %.152 = phi i32 [ %.043, %.thread ], [ %28, %26 ]
  %33 = phi i32 [ %25, %.thread ], [ %spec.select, %26 ]
  %34 = call fastcc i32 @dissect_RPC_HEADER_EXT(ptr noundef %0, i32 noundef %.152, ptr noundef %2, ptr noundef %.041, ptr noundef %4, ptr noundef %5, i32 noundef %33, ptr noundef nonnull %9)
  %35 = load ptr, ptr %9, align 8
  %.not46 = icmp eq ptr %35, null
  br i1 %.not46, label %66, label %36

36:                                               ; preds = %32
  %37 = sub i32 %34, %1
  tail call void @proto_item_set_len(ptr noundef %.042, i32 noundef %37)
  tail call void @add_new_data_source(ptr noundef %2, ptr noundef nonnull %35, ptr noundef nonnull @.str.3870)
  %38 = tail call i32 @tvb_reported_length(ptr noundef nonnull %35)
  %39 = load i32, ptr @ett_mapi_connect_request, align 4
  %40 = tail call ptr @proto_tree_add_subtree(ptr noundef %.041, ptr noundef nonnull %35, i32 noundef 0, i32 noundef %38, i32 noundef %39, ptr noundef null, ptr noundef nonnull @.str.3870)
  %41 = tail call i32 @tvb_reported_length(ptr noundef nonnull %35)
  %42 = load i8, ptr %10, align 1, !range !9, !noundef !10
  %43 = trunc nuw i8 %42 to i1
  %44 = icmp eq i32 %41, 0
  %or.cond.not.i = select i1 %43, i1 true, i1 %44
  br i1 %or.cond.not.i, label %mapi_dissect_element_AuxInfo_auxHeader.exit, label %.lr.ph.i

.lr.ph.i:                                         ; preds = %36, %.lr.ph.i
  %.01415.i = phi i32 [ %50, %.lr.ph.i ], [ 0, %36 ]
  %45 = load i8, ptr %22, align 8
  %46 = icmp eq i8 %45, 0
  %47 = load i32, ptr @hf_mapi_AuxInfo_auxHeader, align 4
  %48 = load i32, ptr @hf_mapi_AuxInfoOut_auxHeader, align 4
  %49 = select i1 %46, i32 %47, i32 %48
  %50 = tail call i32 @mapi_dissect_struct_AUX_HEADER(ptr noundef nonnull %35, i32 noundef %.01415.i, ptr noundef %2, ptr noundef %40, ptr noundef %4, ptr noundef %5, i32 noundef %49, i32 poison)
  %51 = icmp sgt i32 %50, -1
  %52 = icmp ult i32 %50, %41
  %53 = select i1 %51, i1 %52, i1 false
  br i1 %53, label %.lr.ph.i, label %mapi_dissect_element_AuxInfo_auxHeader.exit, !llvm.loop !13

mapi_dissect_element_AuxInfo_auxHeader.exit:      ; preds = %.lr.ph.i, %36
  %54 = getelementptr inbounds nuw i8, ptr %4, i64 64
  %55 = load ptr, ptr %54, align 8
  %56 = getelementptr inbounds nuw i8, ptr %55, i64 96
  %57 = load i32, ptr %56, align 8
  %58 = and i32 %57, 1
  %.not47 = icmp eq i32 %58, 0
  br i1 %.not47, label %66, label %59

59:                                               ; preds = %mapi_dissect_element_AuxInfo_auxHeader.exit
  %60 = load i8, ptr %10, align 1, !range !9, !noundef !10
  %61 = trunc nuw i8 %60 to i1
  %62 = and i32 %34, 3
  %.not48 = icmp eq i32 %62, 0
  %or.cond49 = select i1 %61, i1 true, i1 %.not48
  br i1 %or.cond49, label %66, label %63

63:                                               ; preds = %59
  %64 = and i32 %34, -4
  %65 = add i32 %64, 4
  br label %66

66:                                               ; preds = %mapi_dissect_element_AuxInfo_auxHeader.exit, %63, %59, %32, %8
  %.0 = phi i32 [ %1, %8 ], [ %34, %32 ], [ %34, %59 ], [ %65, %63 ], [ %34, %mapi_dissect_element_AuxInfo_auxHeader.exit ]
  call void @llvm.lifetime.end.p0(i64 8, ptr nonnull %9) #6
  ret i32 %.0
}